; Function Attrs: nofree norecurse nosync nounwind memory(readwrite, inaccessiblemem: none) uwtable
define void @Cec_ManFraCreateInfo(ptr noundef readonly captures(none) %0, ptr noundef readonly captures(none) %1, ptr noundef readonly captures(none) %2, i32 noundef %3) local_unnamed_addr #8 {
  %5 = load ptr, ptr %0, align 8
  %6 = getelementptr i8, ptr %5, i64 64
  %.val20 = load ptr, ptr %6, align 8
  %7 = getelementptr i8, ptr %.val20, i64 4
  %.val.val21 = load i32, ptr %7, align 4
  %8 = icmp sgt i32 %.val.val21, 0
  br i1 %8, label %.lr.ph24, label %._crit_edge25

.lr.ph24:                                         ; preds = %4
  %9 = getelementptr i8, ptr %1, i64 8
  %10 = getelementptr i8, ptr %2, i64 8
  %11 = getelementptr inbounds nuw i8, ptr %0, i64 16
  %12 = load i32, ptr %11, align 8
  %13 = icmp sgt i32 %12, 0
  br i1 %13, label %.lr.ph24.split, label %._crit_edge25

.lr.ph24.split:                                   ; preds = %.lr.ph24, %._crit_edge
  %14 = phi ptr [ %30, %._crit_edge ], [ %5, %.lr.ph24 ]
  %15 = phi i32 [ %31, %._crit_edge ], [ %12, %.lr.ph24 ]
  %indvars.iv28 = phi i64 [ %indvars.iv.next29, %._crit_edge ], [ 0, %.lr.ph24 ]
  %.val17 = load ptr, ptr %9, align 8
  %16 = getelementptr inbounds nuw ptr, ptr %.val17, i64 %indvars.iv28
  %17 = load ptr, ptr %16, align 8
  %.val18 = load ptr, ptr %10, align 8
  %18 = getelementptr inbounds nuw ptr, ptr %.val18, i64 %indvars.iv28
  %19 = load ptr, ptr %18, align 8
  %20 = mul nsw i32 %15, %3
  %21 = sext i32 %20 to i64
  %22 = getelementptr inbounds i32, ptr %19, i64 %21
  %23 = icmp sgt i32 %15, 0
  br i1 %23, label %.lr.ph, label %._crit_edge

.lr.ph:                                           ; preds = %.lr.ph24.split, %.lr.ph
  %indvars.iv = phi i64 [ %indvars.iv.next, %.lr.ph ], [ 0, %.lr.ph24.split ]
  %24 = getelementptr inbounds nuw i32, ptr %22, i64 %indvars.iv
  %25 = load i32, ptr %24, align 4
  %26 = getelementptr inbounds nuw i32, ptr %17, i64 %indvars.iv
  store i32 %25, ptr %26, align 4
  %indvars.iv.next = add nuw nsw i64 %indvars.iv, 1
  %27 = load i32, ptr %11, align 8
  %28 = sext i32 %27 to i64
  %29 = icmp slt i64 %indvars.iv.next, %28
  br i1 %29, label %.lr.ph, label %._crit_edge.loopexit, !llvm.loop !7

._crit_edge.loopexit:                             ; preds = %.lr.ph
  %.pre = load ptr, ptr %0, align 8
  br label %._crit_edge

._crit_edge:                                      ; preds = %._crit_edge.loopexit, %.lr.ph24.split
  %30 = phi ptr [ %.pre, %._crit_edge.loopexit ], [ %14, %.lr.ph24.split ]
  %31 = phi i32 [ %27, %._crit_edge.loopexit ], [ %15, %.lr.ph24.split ]
  %indvars.iv.next29 = add nuw nsw i64 %indvars.iv28, 1
  %32 = getelementptr i8, ptr %30, i64 64
  %.val = load ptr, ptr %32, align 8
  %33 = getelementptr i8, ptr %.val, i64 4
  %.val.val = load i32, ptr %33, align 4
  %34 = sext i32 %.val.val to i64
  %35 = icmp slt i64 %indvars.iv.next29, %34
  br i1 %35, label %.lr.ph24.split, label %._crit_edge25, !llvm.loop !8

._crit_edge25:                                    ; preds = %._crit_edge, %.lr.ph24, %4
  ret void
}